target datalayout = "e-m:e-p270:32:32-p271:32:32-p272:64:64-i64:64-i128:128-f80:128-n8:16:32:64-S128"
target triple = "x86_64-pc-linux-gnu"

%struct.Dar_Lib_t_ = type { ptr, i32, i32, [222 x i32], [222 x ptr], ptr, i32, ptr, [222 x ptr], ptr, [222 x ptr], ptr, [222 x ptr], [222 x i32], [222 x ptr], ptr, i32, i32, i32, [222 x i32], [222 x ptr], ptr, i32, [222 x i32], [222 x ptr], ptr, i32, ptr, i32, ptr, ptr, ptr, ptr, ptr }
%struct.Dar_LibObj_t_ = type { i64 }
%struct.Dar_LibDat_t_ = type { %union.anon, i32, i32, float, i8, [3 x i8] }
%union.anon = type { ptr }

@s_DarLib = internal global ptr null, align 8

; Function Attrs: nounwind uwtable
define internal ptr @Dar_LibObj(ptr noundef %0, i32 noundef %1) #0 {
  %3 = alloca ptr, align 8
  %4 = alloca i32, align 4
  store ptr %0, ptr %3, align 8
  store i32 %1, ptr %4, align 4
  %5 = load ptr, ptr %3, align 8
  %6 = getelementptr inbounds %struct.Dar_Lib_t_, ptr %5, i32 0, i32 0
  %7 = load ptr, ptr %6, align 8
  %8 = load i32, ptr %4, align 4
  %9 = sext i32 %8 to i64
  %10 = getelementptr inbounds %struct.Dar_LibObj_t_, ptr %7, i64 %9
  ret ptr %10
}

; Function Attrs: nounwind uwtable
define void @Dar2_LibBuildClear_rec(ptr noundef %0, ptr noundef %1) #0 {
  %3 = alloca ptr, align 8
  %4 = alloca ptr, align 8
  store ptr %0, ptr %3, align 8
  store ptr %1, ptr %4, align 8
  %5 = load ptr, ptr %3, align 8
  %6 = load i64, ptr %5, align 4
  %7 = lshr i64 %6, 35
  %8 = and i64 %7, 1
  %9 = trunc i64 %8 to i32
  %10 = icmp ne i32 %9, 0
  br i1 %10, label %11, label %12

11:                                               ; preds = %2
  br label %48

12:                                               ; preds = %2
  %13 = load ptr, ptr %4, align 8
  %14 = load i32, ptr %13, align 4
  %15 = add nsw i32 %14, 1
  store i32 %15, ptr %13, align 4
  %16 = load ptr, ptr %3, align 8
  %17 = zext i32 %14 to i64
  %18 = load i64, ptr %16, align 4
  %19 = and i64 %17, 268435455
  %20 = shl i64 %19, 36
  %21 = and i64 %18, 68719476735
  %22 = or i64 %21, %20
  store i64 %22, ptr %16, align 4
  %23 = load ptr, ptr @s_DarLib, align 8
  %24 = getelementptr inbounds %struct.Dar_Lib_t_, ptr %23, i32 0, i32 27
  %25 = load ptr, ptr %24, align 8
  %26 = load ptr, ptr %3, align 8
  %27 = load i64, ptr %26, align 4
  %28 = lshr i64 %27, 36
  %29 = trunc i64 %28 to i32
  %30 = zext i32 %29 to i64
  %31 = getelementptr inbounds %struct.Dar_LibDat_t_, ptr %25, i64 %30
  %32 = getelementptr inbounds %struct.Dar_LibDat_t_, ptr %31, i32 0, i32 0
  store i32 -1, ptr %32, align 8
  %33 = load ptr, ptr @s_DarLib, align 8
  %34 = load ptr, ptr %3, align 8
  %35 = load i64, ptr %34, align 4
  %36 = and i64 %35, 65535
  %37 = trunc i64 %36 to i32
  %38 = call ptr @Dar_LibObj(ptr noundef %33, i32 noundef %37)
  %39 = load ptr, ptr %4, align 8
  call void @Dar2_LibBuildClear_rec(ptr noundef %38, ptr noundef %39)
  %40 = load ptr, ptr @s_DarLib, align 8
  %41 = load ptr, ptr %3, align 8
  %42 = load i64, ptr %41, align 4
  %43 = lshr i64 %42, 16
  %44 = and i64 %43, 65535
  %45 = trunc i64 %44 to i32
  %46 = call ptr @Dar_LibObj(ptr noundef %40, i32 noundef %45)
  %47 = load ptr, ptr %4, align 8
  call void @Dar2_LibBuildClear_rec(ptr noundef %46, ptr noundef %47)
  br label %48

48:                                               ; preds = %12, %11
  ret void
}